target datalayout = "e-m:e-p270:32:32-p271:32:32-p272:64:64-i64:64-i128:128-f80:128-n8:16:32:64-S128"
target triple = "x86_64-pc-linux-gnu"

%struct._generic_SUNLinearSolver_Ops = type { ptr, ptr, ptr, ptr, ptr, ptr, ptr, ptr, ptr, ptr, ptr, ptr, ptr, ptr, ptr }
%struct._generic_SUNLinearSolver = type { ptr, ptr, ptr }

; Function Attrs: nounwind uwtable
define i32 @SUNLinSolSetATimes(ptr noundef %0, ptr noundef %1, ptr noundef %2) #0 {
  %4 = alloca ptr, align 8
  %5 = alloca ptr, align 8
  %6 = alloca ptr, align 8
  %7 = alloca i32, align 4
  store ptr %0, ptr %4, align 8, !tbaa !8
  store ptr %1, ptr %5, align 8, !tbaa !32
  store ptr %2, ptr %6, align 8, !tbaa !32
  call void @llvm.lifetime.start.p0(i64 4, ptr %7) #4
  %8 = load ptr, ptr %4, align 8, !tbaa !8
  %9 = getelementptr inbounds nuw %struct._generic_SUNLinearSolver, ptr %8, i32 0, i32 1
  %10 = load ptr, ptr %9, align 8, !tbaa !28
  %11 = getelementptr inbounds nuw %struct._generic_SUNLinearSolver_Ops, ptr %10, i32 0, i32 2
  %12 = load ptr, ptr %11, align 8, !tbaa !15
  %13 = icmp ne ptr %12, null
  br i1 %13, label %14, label %24

14:                                               ; preds = %3
  %15 = load ptr, ptr %4, align 8, !tbaa !8
  %16 = getelementptr inbounds nuw %struct._generic_SUNLinearSolver, ptr %15, i32 0, i32 1
  %17 = load ptr, ptr %16, align 8, !tbaa !28
  %18 = getelementptr inbounds nuw %struct._generic_SUNLinearSolver_Ops, ptr %17, i32 0, i32 2
  %19 = load ptr, ptr %18, align 8, !tbaa !15
  %20 = load ptr, ptr %4, align 8, !tbaa !8
  %21 = load ptr, ptr %5, align 8, !tbaa !32
  %22 = load ptr, ptr %6, align 8, !tbaa !32
  %23 = call i32 %19(ptr noundef %20, ptr noundef %21, ptr noundef %22)
  store i32 %23, ptr %7, align 4, !tbaa !33
  br label %25

24:                                               ; preds = %3
  store i32 0, ptr %7, align 4, !tbaa !33
  br label %25

25:                                               ; preds = %24, %14
  %26 = load i32, ptr %7, align 4, !tbaa !33
  call void @llvm.lifetime.end.p0(i64 4, ptr %7) #4
  ret i32 %26
}